target datalayout = "e-m:e-p270:32:32-p271:32:32-p272:64:64-i64:64-i128:128-f80:128-n8:16:32:64-S128"
target triple = "x86_64-pc-linux-gnu"

%struct.lean_object = type { i32, i32 }

@l_Lean_Meta_Grind_ppPattern___closed__5 = internal global ptr null, align 8

; Function Attrs: inlinehint nounwind uwtable
define internal zeroext i1 @lean_is_st(ptr noundef %0) #0 {
  %2 = alloca ptr, align 8
  store ptr %0, ptr %2, align 8, !tbaa !8
  %3 = load ptr, ptr %2, align 8, !tbaa !8
  %4 = getelementptr inbounds nuw %struct.lean_object, ptr %3, i32 0, i32 0
  %5 = load i32, ptr %4, align 4, !tbaa !15
  %6 = icmp sgt i32 %5, 0
  ret i1 %6
}

; Function Attrs: alwaysinline nounwind uwtable
define internal void @lean_dec_ref(ptr noundef %0) #1 {
  %2 = alloca ptr, align 8
  store ptr %0, ptr %2, align 8, !tbaa !8
  %3 = load ptr, ptr %2, align 8, !tbaa !8
  %4 = getelementptr inbounds nuw %struct.lean_object, ptr %3, i32 0, i32 0
  %5 = load i32, ptr %4, align 4, !tbaa !15
  %6 = icmp sgt i32 %5, 1
  %7 = zext i1 %6 to i32
  %8 = sext i32 %7 to i64
  %9 = call i64 @llvm.expect.i64(i64 %8, i64 1)
  %10 = icmp ne i64 %9, 0
  br i1 %10, label %11, label %16

11:                                               ; preds = %1
  %12 = load ptr, ptr %2, align 8, !tbaa !8
  %13 = getelementptr inbounds nuw %struct.lean_object, ptr %12, i32 0, i32 0
  %14 = load i32, ptr %13, align 4, !tbaa !15
  %15 = add i32 %14, -1
  store i32 %15, ptr %13, align 4, !tbaa !15
  br label %24

16:                                               ; preds = %1
  %17 = load ptr, ptr %2, align 8, !tbaa !8
  %18 = getelementptr inbounds nuw %struct.lean_object, ptr %17, i32 0, i32 0
  %19 = load i32, ptr %18, align 4, !tbaa !15
  %20 = icmp ne i32 %19, 0
  br i1 %20, label %21, label %23

21:                                               ; preds = %16
  %22 = load ptr, ptr %2, align 8, !tbaa !8
  call void @lean_dec_ref_cold(ptr noundef %22)
  br label %23

23:                                               ; preds = %21, %16
  br label %24

24:                                               ; preds = %23, %11
  ret void
}

; Function Attrs: inlinehint nounwind uwtable
define internal ptr @lean_box(i64 noundef %0) #0 {
  %2 = alloca i64, align 8
  store i64 %0, ptr %2, align 8, !tbaa !4
  %3 = load i64, ptr %2, align 8, !tbaa !4
  %4 = shl i64 %3, 1
  %5 = or i64 %4, 1
  %6 = inttoptr i64 %5 to ptr
  ret ptr %6
}

; Function Attrs: inlinehint nounwind uwtable
define internal i64 @lean_unbox(ptr noundef %0) #0 {
  %2 = alloca ptr, align 8
  store ptr %0, ptr %2, align 8, !tbaa !8
  %3 = load ptr, ptr %2, align 8, !tbaa !8
  %4 = ptrtoint ptr %3 to i64
  %5 = lshr i64 %4, 1
  ret i64 %5
}

; Function Attrs: inlinehint nounwind uwtable
define internal void @lean_inc_ref(ptr noundef %0) #0 {
  %2 = alloca ptr, align 8
  store ptr %0, ptr %2, align 8, !tbaa !8
  %3 = load ptr, ptr %2, align 8, !tbaa !8
  %4 = call zeroext i1 @lean_is_st(ptr noundef %3)
  %5 = zext i1 %4 to i64
  %6 = call i64 @llvm.expect.i64(i64 %5, i64 1)
  %7 = icmp ne i64 %6, 0
  br i1 %7, label %8, label %13

8:                                                ; preds = %1
  %9 = load ptr, ptr %2, align 8, !tbaa !8
  %10 = getelementptr inbounds nuw %struct.lean_object, ptr %9, i32 0, i32 0
  %11 = load i32, ptr %10, align 4, !tbaa !15
  %12 = add i32 %11, 1
  store i32 %12, ptr %10, align 4, !tbaa !15
  br label %21

13:                                               ; preds = %1
  %14 = load ptr, ptr %2, align 8, !tbaa !8
  %15 = getelementptr inbounds nuw %struct.lean_object, ptr %14, i32 0, i32 0
  %16 = load i32, ptr %15, align 4, !tbaa !15
  %17 = icmp ne i32 %16, 0
  br i1 %17, label %18, label %20

18:                                               ; preds = %13
  %19 = load ptr, ptr %2, align 8, !tbaa !8
  call void @lean_inc_ref_cold(ptr noundef %19)
  br label %20

20:                                               ; preds = %18, %13
  br label %21

21:                                               ; preds = %20, %8
  ret void
}

; Function Attrs: alwaysinline nounwind uwtable
define internal zeroext i1 @lean_is_scalar(ptr noundef %0) #1 {
  %2 = alloca ptr, align 8
  store ptr %0, ptr %2, align 8, !tbaa !8
  %3 = load ptr, ptr %2, align 8, !tbaa !8
  %4 = ptrtoint ptr %3 to i64
  %5 = and i64 %4, 1
  %6 = icmp eq i64 %5, 1
  ret i1 %6
}

; Function Attrs: inlinehint nounwind uwtable
define internal ptr @lean_usize_to_nat(i64 noundef %0) #0 {
  %2 = alloca ptr, align 8
  %3 = alloca i64, align 8
  store i64 %0, ptr %3, align 8, !tbaa !4
  %4 = load i64, ptr %3, align 8, !tbaa !4
  %5 = icmp ule i64 %4, 9223372036854775807
  %6 = zext i1 %5 to i32
  %7 = sext i32 %6 to i64
  %8 = call i64 @llvm.expect.i64(i64 %7, i64 1)
  %9 = icmp ne i64 %8, 0
  br i1 %9, label %10, label %13

10:                                               ; preds = %1
  %11 = load i64, ptr %3, align 8, !tbaa !4
  %12 = call ptr @lean_box(i64 noundef %11)
  store ptr %12, ptr %2, align 8
  br label %16

13:                                               ; preds = %1
  %14 = load i64, ptr %3, align 8, !tbaa !4
  %15 = call ptr @lean_big_usize_to_nat(i64 noundef %14)
  store ptr %15, ptr %2, align 8
  br label %16

16:                                               ; preds = %13, %10
  %17 = load ptr, ptr %2, align 8
  ret ptr %17
}

; Function Attrs: alwaysinline nounwind uwtable
define internal void @lean_dec(ptr noundef %0) #1 {
  %2 = alloca ptr, align 8
  store ptr %0, ptr %2, align 8, !tbaa !8
  %3 = load ptr, ptr %2, align 8, !tbaa !8
  %4 = call zeroext i1 @lean_is_scalar(ptr noundef %3)
  br i1 %4, label %7, label %5

5:                                                ; preds = %1
  %6 = load ptr, ptr %2, align 8, !tbaa !8
  call void @lean_dec_ref(ptr noundef %6)
  br label %7

7:                                                ; preds = %5, %1
  ret void
}

; Function Attrs: alwaysinline nounwind uwtable
define internal ptr @lean_nat_sub(ptr noundef %0, ptr noundef %1) #1 {
  %3 = alloca ptr, align 8
  %4 = alloca ptr, align 8
  %5 = alloca ptr, align 8
  %6 = alloca i64, align 8
  %7 = alloca i64, align 8
  %8 = alloca i32, align 4
  store ptr %0, ptr %4, align 8, !tbaa !8
  store ptr %1, ptr %5, align 8, !tbaa !8
  %9 = load ptr, ptr %4, align 8, !tbaa !8
  %10 = call zeroext i1 @lean_is_scalar(ptr noundef %9)
  br i1 %10, label %11, label %14

11:                                               ; preds = %2
  %12 = load ptr, ptr %5, align 8, !tbaa !8
  %13 = call zeroext i1 @lean_is_scalar(ptr noundef %12)
  br label %14

14:                                               ; preds = %11, %2
  %15 = phi i1 [ false, %2 ], [ %13, %11 ]
  %16 = zext i1 %15 to i32
  %17 = sext i32 %16 to i64
  %18 = call i64 @llvm.expect.i64(i64 %17, i64 1)
  %19 = icmp ne i64 %18, 0
  br i1 %19, label %20, label %36

20:                                               ; preds = %14
  call void @llvm.lifetime.start.p0(i64 8, ptr %6) #7
  %21 = load ptr, ptr %4, align 8, !tbaa !8
  %22 = call i64 @lean_unbox(ptr noundef %21)
  store i64 %22, ptr %6, align 8, !tbaa !4
  call void @llvm.lifetime.start.p0(i64 8, ptr %7) #7
  %23 = load ptr, ptr %5, align 8, !tbaa !8
  %24 = call i64 @lean_unbox(ptr noundef %23)
  store i64 %24, ptr %7, align 8, !tbaa !4
  %25 = load i64, ptr %6, align 8, !tbaa !4
  %26 = load i64, ptr %7, align 8, !tbaa !4
  %27 = icmp ult i64 %25, %26
  br i1 %27, label %28, label %30

28:                                               ; preds = %20
  %29 = call ptr @lean_box(i64 noundef 0)
  store ptr %29, ptr %3, align 8
  store i32 1, ptr %8, align 4
  br label %35

30:                                               ; preds = %20
  %31 = load i64, ptr %6, align 8, !tbaa !4
  %32 = load i64, ptr %7, align 8, !tbaa !4
  %33 = sub i64 %31, %32
  %34 = call ptr @lean_box(i64 noundef %33)
  store ptr %34, ptr %3, align 8
  store i32 1, ptr %8, align 4
  br label %35

35:                                               ; preds = %30, %28
  call void @llvm.lifetime.end.p0(i64 8, ptr %7) #7
  call void @llvm.lifetime.end.p0(i64 8, ptr %6) #7
  br label %40

36:                                               ; preds = %14
  %37 = load ptr, ptr %4, align 8, !tbaa !8
  %38 = load ptr, ptr %5, align 8, !tbaa !8
  %39 = call ptr @lean_nat_big_sub(ptr noundef %37, ptr noundef %38)
  store ptr %39, ptr %3, align 8
  br label %40

40:                                               ; preds = %36, %35
  %41 = load ptr, ptr %3, align 8
  ret ptr %41
}

; Function Attrs: alwaysinline nounwind uwtable
define internal void @lean_inc(ptr noundef %0) #1 {
  %2 = alloca ptr, align 8
  store ptr %0, ptr %2, align 8, !tbaa !8
  %3 = load ptr, ptr %2, align 8, !tbaa !8
  %4 = call zeroext i1 @lean_is_scalar(ptr noundef %3)
  br i1 %4, label %7, label %5

5:                                                ; preds = %1
  %6 = load ptr, ptr %2, align 8, !tbaa !8
  call void @lean_inc_ref(ptr noundef %6)
  br label %7

7:                                                ; preds = %5, %1
  ret void
}

; Function Attrs: inlinehint nounwind uwtable
define internal ptr @lean_unsigned_to_nat(i32 noundef %0) #0 {
  %2 = alloca i32, align 4
  store i32 %0, ptr %2, align 4, !tbaa !12
  %3 = load i32, ptr %2, align 4, !tbaa !12
  %4 = zext i32 %3 to i64
  %5 = call ptr @lean_usize_to_nat(i64 noundef %4)
  ret ptr %5
}

; Function Attrs: nounwind uwtable
define ptr @l___private_Lean_Meta_Tactic_Grind_EMatchTheorem_0__Lean_Meta_Grind_canBeSynthesized___lambda__1(ptr noundef %0, ptr noundef %1, ptr noundef %2, ptr noundef %3, ptr noundef %4, ptr noundef %5, ptr noundef %6, ptr noundef %7, ptr noundef %8) #2 {
  %10 = alloca ptr, align 8
  %11 = alloca ptr, align 8
  %12 = alloca ptr, align 8
  %13 = alloca ptr, align 8
  %14 = alloca ptr, align 8
  %15 = alloca ptr, align 8
  %16 = alloca ptr, align 8
  %17 = alloca ptr, align 8
  %18 = alloca ptr, align 8
  %19 = alloca ptr, align 8
  %20 = alloca ptr, align 8
  %21 = alloca ptr, align 8
  %22 = alloca ptr, align 8
  %23 = alloca ptr, align 8
  %24 = alloca ptr, align 8
  %25 = alloca ptr, align 8
  store ptr %0, ptr %10, align 8, !tbaa !8
  store ptr %1, ptr %11, align 8, !tbaa !8
  store ptr %2, ptr %12, align 8, !tbaa !8
  store ptr %3, ptr %13, align 8, !tbaa !8
  store ptr %4, ptr %14, align 8, !tbaa !8
  store ptr %5, ptr %15, align 8, !tbaa !8
  store ptr %6, ptr %16, align 8, !tbaa !8
  store ptr %7, ptr %17, align 8, !tbaa !8
  store ptr %8, ptr %18, align 8, !tbaa !8
  br label %26

26:                                               ; preds = %9
  call void @llvm.lifetime.start.p0(i64 8, ptr %19) #7
  call void @llvm.lifetime.start.p0(i64 8, ptr %20) #7
  call void @llvm.lifetime.start.p0(i64 8, ptr %21) #7
  call void @llvm.lifetime.start.p0(i64 8, ptr %22) #7
  call void @llvm.lifetime.start.p0(i64 8, ptr %23) #7
  call void @llvm.lifetime.start.p0(i64 8, ptr %24) #7
  call void @llvm.lifetime.start.p0(i64 8, ptr %25) #7
  %27 = call ptr @lean_unsigned_to_nat(i32 noundef 0)
  store ptr %27, ptr %19, align 8, !tbaa !8
  %28 = load ptr, ptr %13, align 8, !tbaa !8
  %29 = load ptr, ptr %19, align 8, !tbaa !8
  %30 = call ptr @l___private_Lean_Expr_0__Lean_Expr_getAppNumArgsAux(ptr noundef %28, ptr noundef %29)
  store ptr %30, ptr %20, align 8, !tbaa !8
  %31 = load ptr, ptr @l_Lean_Meta_Grind_ppPattern___closed__5, align 8, !tbaa !8
  store ptr %31, ptr %21, align 8, !tbaa !8
  %32 = load ptr, ptr %20, align 8, !tbaa !8
  call void @lean_inc(ptr noundef %32)
  %33 = load ptr, ptr %20, align 8, !tbaa !8
  %34 = load ptr, ptr %21, align 8, !tbaa !8
  %35 = call ptr @lean_mk_array(ptr noundef %33, ptr noundef %34)
  store ptr %35, ptr %22, align 8, !tbaa !8
  %36 = call ptr @lean_unsigned_to_nat(i32 noundef 1)
  store ptr %36, ptr %23, align 8, !tbaa !8
  %37 = load ptr, ptr %20, align 8, !tbaa !8
  %38 = load ptr, ptr %23, align 8, !tbaa !8
  %39 = call ptr @lean_nat_sub(ptr noundef %37, ptr noundef %38)
  store ptr %39, ptr %24, align 8, !tbaa !8
  %40 = load ptr, ptr %20, align 8, !tbaa !8
  call void @lean_dec(ptr noundef %40)
  %41 = load ptr, ptr %13, align 8, !tbaa !8
  call void @lean_inc(ptr noundef %41)
  %42 = load ptr, ptr %10, align 8, !tbaa !8
  %43 = load ptr, ptr %11, align 8, !tbaa !8
  %44 = load ptr, ptr %12, align 8, !tbaa !8
  %45 = load ptr, ptr %13, align 8, !tbaa !8
  %46 = load ptr, ptr %13, align 8, !tbaa !8
  %47 = load ptr, ptr %22, align 8, !tbaa !8
  %48 = load ptr, ptr %24, align 8, !tbaa !8
  %49 = load ptr, ptr %14, align 8, !tbaa !8
  %50 = load ptr, ptr %15, align 8, !tbaa !8
  %51 = load ptr, ptr %16, align 8, !tbaa !8
  %52 = load ptr, ptr %17, align 8, !tbaa !8
  %53 = load ptr, ptr %18, align 8, !tbaa !8
  %54 = call ptr @l_Lean_Expr_withAppAux___at___private_Lean_Meta_Tactic_Grind_EMatchTheorem_0__Lean_Meta_Grind_canBeSynthesized___spec__3(ptr noundef %42, ptr noundef %43, ptr noundef %44, ptr noundef %45, ptr noundef %46, ptr noundef %47, ptr noundef %48, ptr noundef %49, ptr noundef %50, ptr noundef %51, ptr noundef %52, ptr noundef %53)
  store ptr %54, ptr %25, align 8, !tbaa !8
  %55 = load ptr, ptr %13, align 8, !tbaa !8
  call void @lean_dec(ptr noundef %55)
  %56 = load ptr, ptr %25, align 8, !tbaa !8
  call void @llvm.lifetime.end.p0(i64 8, ptr %25) #7
  call void @llvm.lifetime.end.p0(i64 8, ptr %24) #7
  call void @llvm.lifetime.end.p0(i64 8, ptr %23) #7
  call void @llvm.lifetime.end.p0(i64 8, ptr %22) #7
  call void @llvm.lifetime.end.p0(i64 8, ptr %21) #7
  call void @llvm.lifetime.end.p0(i64 8, ptr %20) #7
  call void @llvm.lifetime.end.p0(i64 8, ptr %19) #7
  ret ptr %56
}