; Function Attrs: nounwind uwtable
define ptr @l___private_Lean_Meta_Tactic_Grind_EMatchTheorem_0__Lean_Meta_Grind_canBeSynthesized___lambda__1(ptr noundef %0, ptr noundef %1, ptr noundef readonly captures(none) %2, ptr noundef %3, ptr noundef %4, ptr noundef %5, ptr noundef %6, ptr noundef %7, ptr noundef %8) local_unnamed_addr #1 {
  %10 = tail call ptr @l___private_Lean_Expr_0__Lean_Expr_getAppNumArgsAux(ptr noundef %3, ptr noundef nonnull inttoptr (i64 1 to ptr)) #9
  %11 = load ptr, ptr @l_Lean_Meta_Grind_ppPattern___closed__5, align 8, !tbaa !9
  %12 = ptrtoint ptr %10 to i64
  %13 = and i64 %12, 1
  %.not = icmp eq i64 %13, 0
  br i1 %.not, label %14, label %20

14:                                               ; preds = %9
  %.val.i = load i32, ptr %10, align 4, !tbaa !4
  %15 = icmp sgt i32 %.val.i, 0
  br i1 %15, label %16, label %18, !prof !11

16:                                               ; preds = %14
  %17 = add nuw i32 %.val.i, 1
  store i32 %17, ptr %10, align 4, !tbaa !4
  br label %26

18:                                               ; preds = %14
  %.not.i27 = icmp eq i32 %.val.i, 0
  br i1 %.not.i27, label %26, label %19

19:                                               ; preds = %18
  tail call void @lean_inc_ref_cold(ptr noundef nonnull %10) #9
  br label %26

20:                                               ; preds = %9
  %21 = tail call ptr @lean_mk_array(ptr noundef %10, ptr noundef %11) #9
  %22 = icmp ult ptr %10, inttoptr (i64 2 to ptr)
  br i1 %22, label %lean_dec.exit23, label %23

23:                                               ; preds = %20
  %24 = add i64 %12, -2
  %25 = inttoptr i64 %24 to ptr
  br label %lean_dec.exit23

26:                                               ; preds = %19, %18, %16
  %27 = tail call ptr @lean_mk_array(ptr noundef nonnull %10, ptr noundef %11) #9
  %28 = tail call ptr @lean_nat_big_sub(ptr noundef nonnull %10, ptr noundef nonnull inttoptr (i64 3 to ptr)) #9
  %29 = load i32, ptr %10, align 4, !tbaa !4
  %30 = icmp sgt i32 %29, 1
  br i1 %30, label %31, label %33, !prof !11

31:                                               ; preds = %26
  %32 = add nsw i32 %29, -1
  store i32 %32, ptr %10, align 4, !tbaa !4
  br label %lean_dec.exit23

33:                                               ; preds = %26
  %.not.i = icmp eq i32 %29, 0
  br i1 %.not.i, label %lean_dec.exit23, label %34

34:                                               ; preds = %33
  tail call void @lean_dec_ref_cold(ptr noundef nonnull %10) #9
  br label %lean_dec.exit23

lean_dec.exit23:                                  ; preds = %23, %20, %34, %33, %31
  %.1.i32 = phi ptr [ %28, %31 ], [ %28, %33 ], [ %28, %34 ], [ inttoptr (i64 1 to ptr), %20 ], [ %25, %23 ]
  %35 = phi ptr [ %27, %31 ], [ %27, %33 ], [ %27, %34 ], [ %21, %20 ], [ %21, %23 ]
  %36 = ptrtoint ptr %3 to i64
  %37 = and i64 %36, 1
  %.not33 = icmp eq i64 %37, 0
  br i1 %.not33, label %38, label %lean_inc.exit

38:                                               ; preds = %lean_dec.exit23
  %.val.i28 = load i32, ptr %3, align 4, !tbaa !4
  %39 = icmp sgt i32 %.val.i28, 0
  br i1 %39, label %40, label %42, !prof !11

40:                                               ; preds = %38
  %41 = add nuw i32 %.val.i28, 1
  store i32 %41, ptr %3, align 4, !tbaa !4
  br label %45

42:                                               ; preds = %38
  %.not.i29 = icmp eq i32 %.val.i28, 0
  br i1 %.not.i29, label %45, label %43

43:                                               ; preds = %42
  tail call void @lean_inc_ref_cold(ptr noundef nonnull %3) #9
  br label %45

lean_inc.exit:                                    ; preds = %lean_dec.exit23
  %44 = tail call ptr @l_Lean_Expr_withAppAux___at___private_Lean_Meta_Tactic_Grind_EMatchTheorem_0__Lean_Meta_Grind_canBeSynthesized___spec__3(ptr noundef %0, ptr noundef %1, ptr noundef %2, ptr noundef %3, ptr noundef %3, ptr noundef %35, ptr noundef %.1.i32, ptr noundef %4, ptr noundef %5, ptr noundef %6, ptr noundef %7, ptr noundef %8)
  br label %lean_dec.exit

45:                                               ; preds = %43, %42, %40
  %46 = tail call ptr @l_Lean_Expr_withAppAux___at___private_Lean_Meta_Tactic_Grind_EMatchTheorem_0__Lean_Meta_Grind_canBeSynthesized___spec__3(ptr noundef %0, ptr noundef %1, ptr noundef %2, ptr noundef nonnull %3, ptr noundef nonnull %3, ptr noundef %35, ptr noundef %.1.i32, ptr noundef %4, ptr noundef %5, ptr noundef %6, ptr noundef %7, ptr noundef %8)
  %47 = load i32, ptr %3, align 4, !tbaa !4
  %48 = icmp sgt i32 %47, 1
  br i1 %48, label %49, label %51, !prof !11

49:                                               ; preds = %45
  %50 = add nsw i32 %47, -1
  store i32 %50, ptr %3, align 4, !tbaa !4
  br label %lean_dec.exit

51:                                               ; preds = %45
  %.not.i25 = icmp eq i32 %47, 0
  br i1 %.not.i25, label %lean_dec.exit, label %52

52:                                               ; preds = %51
  tail call void @lean_dec_ref_cold(ptr noundef nonnull %3) #9
  br label %lean_dec.exit

lean_dec.exit:                                    ; preds = %52, %51, %49, %lean_inc.exit
  %53 = phi ptr [ %44, %lean_inc.exit ], [ %46, %49 ], [ %46, %51 ], [ %46, %52 ]
  ret ptr %53
}